---
triple:          'x86_64-apple-darwin'
binary-path:     snake_game
relocations:
  - { offset: 0x1049, size: 0x8, addend: 0x0, symName: __ZNSt3__1eqB8ne180100IiiiiEEbRKNS_4pairIT_T0_EERKNS1_IT1_T2_EE, symObjAddr: 0x3B0, symBinAddr: 0x100001690, symSize: 0x50 }
  - { offset: 0x10AA, size: 0x8, addend: 0x0, symName: __ZNSt3__112__to_addressB8ne180100INS_4pairIiiEEEEPT_S4_, symObjAddr: 0x760, symBinAddr: 0x100001A40, symSize: 0x10 }
  - { offset: 0x10DF, size: 0x8, addend: 0x0, symName: __ZNSt3__112__destroy_atB8ne180100INS_4pairIiiEELi0EEEvPT_, symObjAddr: 0x770, symBinAddr: 0x100001A50, symSize: 0x10 }
  - { offset: 0x1116, size: 0x8, addend: 0x0, symName: __ZNSt3__119__libcpp_deallocateB8ne180100EPvmm, symObjAddr: 0x7C0, symBinAddr: 0x100001AA0, symSize: 0x60 }
  - { offset: 0x117B, size: 0x8, addend: 0x0, symName: __ZNSt3__124__is_overaligned_for_newB8ne180100Em, symObjAddr: 0x820, symBinAddr: 0x100001B00, symSize: 0x20 }
  - { offset: 0x11A9, size: 0x8, addend: 0x0, symName: __ZNSt3__127__do_deallocate_handle_sizeB8ne180100IJSt11align_val_tEEEvPvmDpT_, symObjAddr: 0x840, symBinAddr: 0x100001B20, symSize: 0x30 }
  - { offset: 0x11FC, size: 0x8, addend: 0x0, symName: __ZNSt3__127__do_deallocate_handle_sizeB8ne180100IJEEEvPvmDpT_, symObjAddr: 0x870, symBinAddr: 0x100001B50, symSize: 0x20 }
  - { offset: 0x123A, size: 0x8, addend: 0x0, symName: __ZNSt3__124__libcpp_operator_deleteB8ne180100IJPvSt11align_val_tEEEvDpT_, symObjAddr: 0x890, symBinAddr: 0x100001B70, symSize: 0x30 }
  - { offset: 0x1283, size: 0x8, addend: 0x0, symName: __ZNSt3__124__libcpp_operator_deleteB8ne180100IJPvEEEvDpT_, symObjAddr: 0x8C0, symBinAddr: 0x100001BA0, symSize: 0x20 }
  - { offset: 0x1F66, size: 0x8, addend: 0x0, symName: __Z13print_bordersNSt3__14pairIiiEE, symObjAddr: 0x0, symBinAddr: 0x1000012E0, symSize: 0x100 }
  - { offset: 0x1FFE, size: 0x8, addend: 0x0, symName: _main, symObjAddr: 0x100, symBinAddr: 0x1000013E0, symSize: 0x280 }
  - { offset: 0x207B, size: 0x8, addend: 0x0, symName: __ZNSt3__14pairIiiEC1B8ne180100IiiLi0EEEOT_OT0_, symObjAddr: 0x380, symBinAddr: 0x100001660, symSize: 0x30 }
  - { offset: 0x20D7, size: 0x8, addend: 0x0, symName: __ZNSt3__14pairIiiEC1B8ne180100IiiLPv0EEERNS0_IT_T0_EE, symObjAddr: 0x400, symBinAddr: 0x1000016E0, symSize: 0x30 }
  - { offset: 0x2213, size: 0x8, addend: 0x0, symName: __ZN5SnakeD1Ev, symObjAddr: 0x430, symBinAddr: 0x100001710, symSize: 0x20 }
  - { offset: 0x223D, size: 0x8, addend: 0x0, symName: __ZNSt3__14pairIiiEC2B8ne180100IiiLi0EEEOT_OT0_, symObjAddr: 0x450, symBinAddr: 0x100001730, symSize: 0x30 }
  - { offset: 0x2299, size: 0x8, addend: 0x0, symName: __ZNSt3__14pairIiiEC2B8ne180100IiiLPv0EEERNS0_IT_T0_EE, symObjAddr: 0x480, symBinAddr: 0x100001760, symSize: 0x30 }
  - { offset: 0x22E7, size: 0x8, addend: 0x0, symName: __ZN5SnakeD2Ev, symObjAddr: 0x4B0, symBinAddr: 0x100001790, symSize: 0x20 }
  - { offset: 0x2311, size: 0x8, addend: 0x0, symName: __ZNSt3__16vectorINS_4pairIiiEENS_9allocatorIS2_EEED1B8ne180100Ev, symObjAddr: 0x4D0, symBinAddr: 0x1000017B0, symSize: 0x20 }
  - { offset: 0x2339, size: 0x8, addend: 0x0, symName: __ZNSt3__16vectorINS_4pairIiiEENS_9allocatorIS2_EEED2B8ne180100Ev, symObjAddr: 0x4F0, symBinAddr: 0x1000017D0, symSize: 0x40 }
  - { offset: 0x2361, size: 0x8, addend: 0x0, symName: __ZNSt3__16vectorINS_4pairIiiEENS_9allocatorIS2_EEE16__destroy_vectorC1B8ne180100ERS5_, symObjAddr: 0x530, symBinAddr: 0x100001810, symSize: 0x30 }
  - { offset: 0x2398, size: 0x8, addend: 0x0, symName: __ZNSt3__16vectorINS_4pairIiiEENS_9allocatorIS2_EEE16__destroy_vectorclB8ne180100Ev, symObjAddr: 0x570, symBinAddr: 0x100001850, symSize: 0x80 }
  - { offset: 0x23BC, size: 0x8, addend: 0x0, symName: __ZNSt3__16vectorINS_4pairIiiEENS_9allocatorIS2_EEE16__destroy_vectorC2B8ne180100ERS5_, symObjAddr: 0x5F0, symBinAddr: 0x1000018D0, symSize: 0x20 }
  - { offset: 0x23F3, size: 0x8, addend: 0x0, symName: __ZNSt3__16vectorINS_4pairIiiEENS_9allocatorIS2_EEE7__clearB8ne180100Ev, symObjAddr: 0x610, symBinAddr: 0x1000018F0, symSize: 0x20 }
  - { offset: 0x2417, size: 0x8, addend: 0x0, symName: __ZNKSt3__16vectorINS_4pairIiiEENS_9allocatorIS2_EEE17__annotate_deleteB8ne180100Ev, symObjAddr: 0x630, symBinAddr: 0x100001910, symSize: 0x10 }
  - { offset: 0x243B, size: 0x8, addend: 0x0, symName: __ZNSt3__116allocator_traitsINS_9allocatorINS_4pairIiiEEEEE10deallocateB8ne180100ERS4_PS3_m, symObjAddr: 0x640, symBinAddr: 0x100001920, symSize: 0x30 }
  - { offset: 0x247C, size: 0x8, addend: 0x0, symName: __ZNSt3__16vectorINS_4pairIiiEENS_9allocatorIS2_EEE7__allocB8ne180100Ev, symObjAddr: 0x670, symBinAddr: 0x100001950, symSize: 0x20 }
  - { offset: 0x24A0, size: 0x8, addend: 0x0, symName: __ZNKSt3__16vectorINS_4pairIiiEENS_9allocatorIS2_EEE8capacityB8ne180100Ev, symObjAddr: 0x690, symBinAddr: 0x100001970, symSize: 0x30 }
  - { offset: 0x24C4, size: 0x8, addend: 0x0, symName: __ZNSt3__16vectorINS_4pairIiiEENS_9allocatorIS2_EEE22__base_destruct_at_endB8ne180100EPS2_, symObjAddr: 0x6C0, symBinAddr: 0x1000019A0, symSize: 0x80 }
  - { offset: 0x2506, size: 0x8, addend: 0x0, symName: __ZNSt3__116allocator_traitsINS_9allocatorINS_4pairIiiEEEEE7destroyB8ne180100IS3_vvEEvRS4_PT_, symObjAddr: 0x740, symBinAddr: 0x100001A20, symSize: 0x20 }
  - { offset: 0x253F, size: 0x8, addend: 0x0, symName: __ZNSt3__19allocatorINS_4pairIiiEEE10deallocateB8ne180100EPS2_m, symObjAddr: 0x780, symBinAddr: 0x100001A60, symSize: 0x40 }
  - { offset: 0x257F, size: 0x8, addend: 0x0, symName: __ZNSt3__117__compressed_pairIPNS_4pairIiiEENS_9allocatorIS2_EEE6secondB8ne180100Ev, symObjAddr: 0x8E0, symBinAddr: 0x100001BC0, symSize: 0x20 }
  - { offset: 0x25A3, size: 0x8, addend: 0x0, symName: __ZNSt3__122__compressed_pair_elemINS_9allocatorINS_4pairIiiEEEELi1ELb1EE5__getB8ne180100Ev, symObjAddr: 0x900, symBinAddr: 0x100001BE0, symSize: 0x10 }
  - { offset: 0x25C7, size: 0x8, addend: 0x0, symName: __ZNKSt3__16vectorINS_4pairIiiEENS_9allocatorIS2_EEE9__end_capB8ne180100Ev, symObjAddr: 0x910, symBinAddr: 0x100001BF0, symSize: 0x20 }
  - { offset: 0x25EB, size: 0x8, addend: 0x0, symName: __ZNKSt3__117__compressed_pairIPNS_4pairIiiEENS_9allocatorIS2_EEE5firstB8ne180100Ev, symObjAddr: 0x930, symBinAddr: 0x100001C10, symSize: 0x20 }
  - { offset: 0x260F, size: 0x8, addend: 0x0, symName: __ZNKSt3__122__compressed_pair_elemIPNS_4pairIiiEELi0ELb0EE5__getB8ne180100Ev, symObjAddr: 0x950, symBinAddr: 0x100001C30, symSize: 0xE }
  - { offset: 0x9B28, size: 0x8, addend: 0x0, symName: __ZNSt3__17advanceB8ne180100IPNS_4pairIiiEEllvEEvRT_T0_, symObjAddr: 0x1CF0, symBinAddr: 0x100003470, symSize: 0x30 }
  - { offset: 0x9DA8, size: 0x8, addend: 0x0, symName: __ZNSt3__17advanceB8ne180100INS_16reverse_iteratorIPNS_4pairIiiEEEEllvEEvRT_T0_, symObjAddr: 0x20B0, symBinAddr: 0x100003830, symSize: 0x30 }
  - { offset: 0x9E13, size: 0x8, addend: 0x0, symName: __ZNSt3__124__put_character_sequenceB8ne180100IcNS_11char_traitsIcEEEERNS_13basic_ostreamIT_T0_EES7_PKS4_m, symObjAddr: 0x2880, symBinAddr: 0x100003FD0, symSize: 0x1F0 }
  - { offset: 0xB0E0, size: 0x8, addend: 0x0, symName: __ZNSt3__1lsB8ne180100INS_11char_traitsIcEEEERNS_13basic_ostreamIcT_EES6_PKc, symObjAddr: 0x650, symBinAddr: 0x100002270, symSize: 0x40 }
  - { offset: 0xB126, size: 0x8, addend: 0x0, symName: __ZNSt3__14endlB8ne180100IcNS_11char_traitsIcEEEERNS_13basic_ostreamIT_T0_EES7_, symObjAddr: 0x6B0, symBinAddr: 0x1000022D0, symSize: 0x50 }
  - { offset: 0xB166, size: 0x8, addend: 0x0, symName: __ZNSt3__13minB8ne180100ImEERKT_S3_S3_, symObjAddr: 0x1100, symBinAddr: 0x100002880, symSize: 0x30 }
  - { offset: 0xB393, size: 0x8, addend: 0x0, symName: __ZNSt3__13minB8ne180100ImNS_6__lessIvvEEEERKT_S5_S5_T0_, symObjAddr: 0x1180, symBinAddr: 0x100002900, symSize: 0x50 }
  - { offset: 0xB622, size: 0x8, addend: 0x0, symName: __ZNSt3__120__throw_length_errorB8ne180100EPKc, symObjAddr: 0x1260, symBinAddr: 0x1000029E0, symSize: 0x70 }
  - { offset: 0xB64A, size: 0x8, addend: 0x0, symName: __ZNSt3__119__allocate_at_leastB8ne180100INS_9allocatorINS_4pairIiiEEEEEEDaRT_m, symObjAddr: 0x1440, symBinAddr: 0x100002BC0, symSize: 0x40 }
  - { offset: 0xB68D, size: 0x8, addend: 0x0, symName: __ZNSt3__117allocate_at_leastB8ne180100INS_9allocatorINS_4pairIiiEEEEEENS_17allocation_resultINS_16allocator_traitsIT_E7pointerEEERS7_m, symObjAddr: 0x1520, symBinAddr: 0x100002CA0, symSize: 0x40 }
  - { offset: 0xB6D0, size: 0x8, addend: 0x0, symName: __ZNSt3__117__libcpp_allocateB8ne180100Emm, symObjAddr: 0x1630, symBinAddr: 0x100002DB0, symSize: 0x60 }
  - { offset: 0xB72A, size: 0x8, addend: 0x0, symName: __ZNSt3__121__libcpp_operator_newB8ne180100IJmSt11align_val_tEEEPvDpT_, symObjAddr: 0x1690, symBinAddr: 0x100002E10, symSize: 0x30 }
  - { offset: 0xB777, size: 0x8, addend: 0x0, symName: __ZNSt3__121__libcpp_operator_newB8ne180100IJmEEEPvDpT_, symObjAddr: 0x16C0, symBinAddr: 0x100002E40, symSize: 0x20 }
  - { offset: 0xB7B0, size: 0x8, addend: 0x0, symName: __ZNSt3__142__uninitialized_allocator_move_if_noexceptB8ne180100INS_9allocatorINS_4pairIiiEEEENS_16reverse_iteratorIPS3_EES7_S7_EET2_RT_T0_T1_S8_, symObjAddr: 0x1750, symBinAddr: 0x100002ED0, symSize: 0x180 }
  - { offset: 0xB84F, size: 0x8, addend: 0x0, symName: __ZNSt3__14swapB8ne180100IPNS_4pairIiiEEEENS_9enable_ifIXaasr21is_move_constructibleIT_EE5valuesr18is_move_assignableIS5_EE5valueEvE4typeERS5_S8_, symObjAddr: 0x1920, symBinAddr: 0x1000030A0, symSize: 0x40 }
  - { offset: 0xB8A0, size: 0x8, addend: 0x0, symName: __ZNSt3__122__make_exception_guardB8ne180100INS_29_AllocatorDestroyRangeReverseINS_9allocatorINS_4pairIiiEEEENS_16reverse_iteratorIPS4_EEEEEENS_28__exception_guard_exceptionsIT_EESB_, symObjAddr: 0x1990, symBinAddr: 0x100003110, symSize: 0x60 }
  - { offset: 0xB8D5, size: 0x8, addend: 0x0, symName: __ZNSt3__1neB8ne180100IPNS_4pairIiiEES3_EEbRKNS_16reverse_iteratorIT_EERKNS4_IT0_EE, symObjAddr: 0x1A30, symBinAddr: 0x1000031B0, symSize: 0x40 }
  - { offset: 0xB921, size: 0x8, addend: 0x0, symName: __ZNSt3__112__to_addressB8ne180100INS_16reverse_iteratorIPNS_4pairIiiEEEEvEEu7__decayIDTclsr19__to_address_helperIT_EE6__callclsr3stdE7declvalIRKS6_EEEEES8_, symObjAddr: 0x1AA0, symBinAddr: 0x100003220, symSize: 0x20 }
  - { offset: 0xB957, size: 0x8, addend: 0x0, symName: __ZNSt3__114__construct_atB8ne180100INS_4pairIiiEEJS2_EPS2_EEPT_S5_DpOT0_, symObjAddr: 0x1C00, symBinAddr: 0x100003380, symSize: 0x30 }
  - { offset: 0xB9AA, size: 0x8, addend: 0x0, symName: __ZNSt3__112construct_atB8ne180100INS_4pairIiiEEJS2_EPS2_EEPT_S5_DpOT0_, symObjAddr: 0x1C30, symBinAddr: 0x1000033B0, symSize: 0x20 }
  - { offset: 0xBA27, size: 0x8, addend: 0x0, symName: __ZNSt3__14prevB8ne180100IPNS_4pairIiiEELi0EEET_S4_NS_15iterator_traitsIS4_E15difference_typeE, symObjAddr: 0x1CC0, symBinAddr: 0x100003440, symSize: 0x30 }
  - { offset: 0xBA70, size: 0x8, addend: 0x0, symName: __ZNSt3__121__convert_to_integralB8ne180100El, symObjAddr: 0x1D20, symBinAddr: 0x1000034A0, symSize: 0x10 }
  - { offset: 0xBA9C, size: 0x8, addend: 0x0, symName: __ZNSt3__19__advanceB8ne180100IPNS_4pairIiiEEEEvRT_NS_15iterator_traitsIS4_E15difference_typeENS_26random_access_iterator_tagE, symObjAddr: 0x1D30, symBinAddr: 0x1000034B0, symSize: 0x20 }
  - { offset: 0xBAE6, size: 0x8, addend: 0x0, symName: __ZNSt3__119__allocator_destroyB8ne180100INS_9allocatorINS_4pairIiiEEEENS_16reverse_iteratorINS5_IPS3_EEEES8_EEvRT_T0_T1_, symObjAddr: 0x1E80, symBinAddr: 0x100003600, symSize: 0x70 }
  - { offset: 0xBB49, size: 0x8, addend: 0x0, symName: __ZNSt3__1neB8ne180100INS_16reverse_iteratorIPNS_4pairIiiEEEES5_EEbRKNS1_IT_EERKNS1_IT0_EE, symObjAddr: 0x1F20, symBinAddr: 0x1000036A0, symSize: 0x50 }
  - { offset: 0xBB95, size: 0x8, addend: 0x0, symName: __ZNSt3__112__to_addressB8ne180100INS_16reverse_iteratorINS1_IPNS_4pairIiiEEEEEEvEEu7__decayIDTclsr19__to_address_helperIT_EE6__callclsr3stdE7declvalIRKS7_EEEEES9_, symObjAddr: 0x1F70, symBinAddr: 0x1000036F0, symSize: 0x20 }
  - { offset: 0xBBF5, size: 0x8, addend: 0x0, symName: __ZNSt3__14prevB8ne180100INS_16reverse_iteratorIPNS_4pairIiiEEEELi0EEET_S6_NS_15iterator_traitsIS6_E15difference_typeE, symObjAddr: 0x2070, symBinAddr: 0x1000037F0, symSize: 0x40 }
  - { offset: 0xBC3E, size: 0x8, addend: 0x0, symName: __ZNSt3__19__advanceB8ne180100INS_16reverse_iteratorIPNS_4pairIiiEEEEEEvRT_NS_15iterator_traitsIS6_E15difference_typeENS_26random_access_iterator_tagE, symObjAddr: 0x20E0, symBinAddr: 0x100003860, symSize: 0x30 }
  - { offset: 0xBC88, size: 0x8, addend: 0x0, symName: __ZNSt3__114__construct_atB8ne180100INS_4pairIiiEEJRKS2_EPS2_EEPT_S7_DpOT0_, symObjAddr: 0x25D0, symBinAddr: 0x100003D50, symSize: 0x30 }
  - { offset: 0xBCDB, size: 0x8, addend: 0x0, symName: __ZNSt3__112construct_atB8ne180100INS_4pairIiiEEJRKS2_EPS2_EEPT_S7_DpOT0_, symObjAddr: 0x2600, symBinAddr: 0x100003D80, symSize: 0x20 }
  - { offset: 0xBD2E, size: 0x8, addend: 0x0, symName: __ZNSt3__13maxB8ne180100ImEERKT_S3_S3_, symObjAddr: 0x26D0, symBinAddr: 0x100003E50, symSize: 0x30 }
  - { offset: 0xBD71, size: 0x8, addend: 0x0, symName: __ZNSt3__13maxB8ne180100ImNS_6__lessIvvEEEERKT_S5_S5_T0_, symObjAddr: 0x2700, symBinAddr: 0x100003E80, symSize: 0x50 }
  - { offset: 0xBDCC, size: 0x8, addend: 0x0, symName: __ZNSt3__120__throw_out_of_rangeB8ne180100EPKc, symObjAddr: 0x2770, symBinAddr: 0x100003EF0, symSize: 0x70 }
  - { offset: 0xBDF4, size: 0x8, addend: 0x0, symName: __ZNSt3__116__pad_and_outputB8ne180100IcNS_11char_traitsIcEEEENS_19ostreambuf_iteratorIT_T0_EES6_PKS4_S8_S8_RNS_8ios_baseES4_, symObjAddr: 0x2AC0, symBinAddr: 0x100004210, symSize: 0x220 }
  - { offset: 0xBEC4, size: 0x8, addend: 0x0, symName: __ZNSt3__112__to_addressB8ne180100IcEEPT_S2_, symObjAddr: 0x2FE0, symBinAddr: 0x100004730, symSize: 0x10 }
  - { offset: 0xBEF9, size: 0x8, addend: 0x0, symName: __ZNSt3__19use_facetB8ne180100INS_5ctypeIcEEEERKT_RKNS_6localeE, symObjAddr: 0x3270, symBinAddr: 0x1000049C0, symSize: 0x30 }
  - { offset: 0xC3CE, size: 0x8, addend: 0x0, symName: __ZNSt3__118__constexpr_strlenB8ne180100EPKc, symObjAddr: 0x3300, symBinAddr: 0x100004A50, symSize: 0x1B }
  - { offset: 0xD250, size: 0x8, addend: 0x0, symName: __ZSt28__throw_bad_array_new_lengthB8ne180100v, symObjAddr: 0x15F0, symBinAddr: 0x100002D70, symSize: 0x40 }
  - { offset: 0xD6E1, size: 0x8, addend: 0x0, symName: __ZNSt3__16vectorINS_4pairIiiEENS_9allocatorIS2_EEE26__swap_out_circular_bufferERNS_14__split_bufferIS2_RS4_EE, symObjAddr: 0xFC0, symBinAddr: 0x100002740, symSize: 0x120 }
  - { offset: 0xD984, size: 0x8, addend: 0x0, symName: __ZN5SnakeC2ERKNSt3__14pairIiiEE, symObjAddr: 0x0, symBinAddr: 0x100001C40, symSize: 0x60 }
  - { offset: 0xD9BC, size: 0x8, addend: 0x0, symName: __ZNSt3__16vectorINS_4pairIiiEENS_9allocatorIS2_EEEC1B8ne180100Ev, symObjAddr: 0x60, symBinAddr: 0x100001CA0, symSize: 0x20 }
  - { offset: 0xD9E4, size: 0x8, addend: 0x0, symName: __ZNSt3__14pairIiiEC1B8ne180100ILb1ELi0EEEv, symObjAddr: 0x80, symBinAddr: 0x100001CC0, symSize: 0x20 }
  - { offset: 0xDA1D, size: 0x8, addend: 0x0, symName: __ZN5Snake15init_snake_pos_ERKNSt3__14pairIiiEE, symObjAddr: 0xA0, symBinAddr: 0x100001CE0, symSize: 0x60 }
  - { offset: 0xDA5F, size: 0x8, addend: 0x0, symName: __ZN5SnakeC1ERKNSt3__14pairIiiEE, symObjAddr: 0x120, symBinAddr: 0x100001D40, symSize: 0x30 }
  - { offset: 0xDA98, size: 0x8, addend: 0x0, symName: __ZNSt3__16vectorINS_4pairIiiEENS_9allocatorIS2_EEE7reserveEm, symObjAddr: 0x150, symBinAddr: 0x100001D70, symSize: 0xF0 }
  - { offset: 0xDAF2, size: 0x8, addend: 0x0, symName: __ZNSt3__16vectorINS_4pairIiiEENS_9allocatorIS2_EEE9push_backB8ne180100ERKS2_, symObjAddr: 0x240, symBinAddr: 0x100001E60, symSize: 0x80 }
  - { offset: 0xDB37, size: 0x8, addend: 0x0, symName: __ZN5Snake19set_snake_directionERc, symObjAddr: 0x2C0, symBinAddr: 0x100001EE0, symSize: 0x120 }
  - { offset: 0xDB7A, size: 0x8, addend: 0x0, symName: __ZN5Snake13set_snake_posEcRNSt3__14pairIiiEERKS2_, symObjAddr: 0x3E0, symBinAddr: 0x100002000, symSize: 0x270 }
  - { offset: 0xDC02, size: 0x8, addend: 0x0, symName: __ZNSt3__113basic_ostreamIcNS_11char_traitsIcEEElsB8ne180100EPFRS3_S4_E, symObjAddr: 0x690, symBinAddr: 0x1000022B0, symSize: 0x20 }
  - { offset: 0xDC34, size: 0x8, addend: 0x0, symName: __ZNSt3__16vectorINS_4pairIiiEENS_9allocatorIS2_EEE4backB8ne180100Ev, symObjAddr: 0x700, symBinAddr: 0x100002320, symSize: 0x20 }
  - { offset: 0xDC58, size: 0x8, addend: 0x0, symName: __ZNSt3__14pairIiiEaSB8ne180100ERKS1_, symObjAddr: 0x720, symBinAddr: 0x100002340, symSize: 0x30 }
  - { offset: 0xDC8B, size: 0x8, addend: 0x0, symName: __ZNKSt3__16vectorINS_4pairIiiEENS_9allocatorIS2_EEE4sizeB8ne180100Ev, symObjAddr: 0x750, symBinAddr: 0x100002370, symSize: 0x20 }
  - { offset: 0xDCB0, size: 0x8, addend: 0x0, symName: __ZNSt3__16vectorINS_4pairIiiEENS_9allocatorIS2_EEE2atEm, symObjAddr: 0x770, symBinAddr: 0x100002390, symSize: 0x60 }
  - { offset: 0xDCE5, size: 0x8, addend: 0x0, symName: __ZNSt3__16vectorINS_4pairIiiEENS_9allocatorIS2_EEE5frontB8ne180100Ev, symObjAddr: 0x7D0, symBinAddr: 0x1000023F0, symSize: 0x20 }
  - { offset: 0xDD0A, size: 0x8, addend: 0x0, symName: __ZN5Snake13get_snake_posEv, symObjAddr: 0x7F0, symBinAddr: 0x100002410, symSize: 0x30 }
  - { offset: 0xDD31, size: 0x8, addend: 0x0, symName: __ZN5Snake15get_whole_snakeEv, symObjAddr: 0x850, symBinAddr: 0x100002440, symSize: 0x10 }
  - { offset: 0xDD58, size: 0x8, addend: 0x0, symName: __ZN5Snake12extend_snakeEv, symObjAddr: 0x860, symBinAddr: 0x100002450, symSize: 0x30 }
  - { offset: 0xDD7F, size: 0x8, addend: 0x0, symName: __ZN5Snake11print_snakeEv, symObjAddr: 0x890, symBinAddr: 0x100002480, symSize: 0xB0 }
  - { offset: 0xDDC1, size: 0x8, addend: 0x0, symName: __ZNSt3__16vectorINS_4pairIiiEENS_9allocatorIS2_EEEC2B8ne180100Ev, symObjAddr: 0x940, symBinAddr: 0x100002530, symSize: 0x50 }
  - { offset: 0xDDF3, size: 0x8, addend: 0x0, symName: __ZNSt3__117__compressed_pairIPNS_4pairIiiEENS_9allocatorIS2_EEEC1B8ne180100IDnNS_18__default_init_tagEEEOT_OT0_, symObjAddr: 0x990, symBinAddr: 0x100002580, symSize: 0x30 }
  - { offset: 0xDE49, size: 0x8, addend: 0x0, symName: __ZNSt3__117__compressed_pairIPNS_4pairIiiEENS_9allocatorIS2_EEEC2B8ne180100IDnNS_18__default_init_tagEEEOT_OT0_, symObjAddr: 0x9D0, symBinAddr: 0x1000025B0, symSize: 0x40 }
  - { offset: 0xDE9F, size: 0x8, addend: 0x0, symName: __ZNSt3__122__compressed_pair_elemIPNS_4pairIiiEELi0ELb0EEC2B8ne180100IDnvEEOT_, symObjAddr: 0xA10, symBinAddr: 0x1000025F0, symSize: 0x20 }
  - { offset: 0xDEDF, size: 0x8, addend: 0x0, symName: __ZNSt3__122__compressed_pair_elemINS_9allocatorINS_4pairIiiEEEELi1ELb1EEC2B8ne180100ENS_18__default_init_tagE, symObjAddr: 0xA30, symBinAddr: 0x100002610, symSize: 0x20 }
  - { offset: 0xDF12, size: 0x8, addend: 0x0, symName: __ZNSt3__19allocatorINS_4pairIiiEEEC2B8ne180100Ev, symObjAddr: 0xA50, symBinAddr: 0x100002630, symSize: 0x20 }
  - { offset: 0xDF3A, size: 0x8, addend: 0x0, symName: __ZNSt3__116__non_trivial_ifILb1ENS_9allocatorINS_4pairIiiEEEEEC2B8ne180100Ev, symObjAddr: 0xA70, symBinAddr: 0x100002650, symSize: 0x10 }
  - { offset: 0xDF62, size: 0x8, addend: 0x0, symName: __ZNSt3__14pairIiiEC2B8ne180100ILb1ELi0EEEv, symObjAddr: 0xA80, symBinAddr: 0x100002660, symSize: 0x20 }
  - { offset: 0xDF9B, size: 0x8, addend: 0x0, symName: __ZNKSt3__16vectorINS_4pairIiiEENS_9allocatorIS2_EEE8max_sizeEv, symObjAddr: 0xF00, symBinAddr: 0x100002680, symSize: 0x60 }
  - { offset: 0xDFC1, size: 0x8, addend: 0x0, symName: __ZNKSt3__16vectorINS_4pairIiiEENS_9allocatorIS2_EEE20__throw_length_errorB8ne180100Ev, symObjAddr: 0xF60, symBinAddr: 0x1000026E0, symSize: 0x20 }
  - { offset: 0xDFE6, size: 0x8, addend: 0x0, symName: __ZNSt3__114__split_bufferINS_4pairIiiEERNS_9allocatorIS2_EEEC1EmmS5_, symObjAddr: 0xF80, symBinAddr: 0x100002700, symSize: 0x40 }
  - { offset: 0xE03B, size: 0x8, addend: 0x0, symName: __ZNSt3__114__split_bufferINS_4pairIiiEERNS_9allocatorIS2_EEED1Ev, symObjAddr: 0x10E0, symBinAddr: 0x100002860, symSize: 0x20 }
  - { offset: 0xE06F, size: 0x8, addend: 0x0, symName: __ZNSt3__116allocator_traitsINS_9allocatorINS_4pairIiiEEEEE8max_sizeB8ne180100IS4_vvEEmRKS4_, symObjAddr: 0x1130, symBinAddr: 0x1000028B0, symSize: 0x20 }
  - { offset: 0xE099, size: 0x8, addend: 0x0, symName: __ZNKSt3__16vectorINS_4pairIiiEENS_9allocatorIS2_EEE7__allocB8ne180100Ev, symObjAddr: 0x1150, symBinAddr: 0x1000028D0, symSize: 0x20 }
  - { offset: 0xE0BE, size: 0x8, addend: 0x0, symName: __ZNSt3__114numeric_limitsIlE3maxB8ne180100Ev, symObjAddr: 0x1170, symBinAddr: 0x1000028F0, symSize: 0x10 }
  - { offset: 0xE0E5, size: 0x8, addend: 0x0, symName: __ZNKSt3__16__lessIvvEclB8ne180100ImmEEbRKT_RKT0_, symObjAddr: 0x11D0, symBinAddr: 0x100002950, symSize: 0x30 }
  - { offset: 0xE138, size: 0x8, addend: 0x0, symName: __ZNSt3__114numeric_limitsImE3maxB8ne180100Ev, symObjAddr: 0x1200, symBinAddr: 0x100002980, symSize: 0x10 }
  - { offset: 0xE14C, size: 0x8, addend: 0x0, symName: __ZNSt3__123__libcpp_numeric_limitsImLb1EE3maxB8ne180100Ev, symObjAddr: 0x1210, symBinAddr: 0x100002990, symSize: 0x10 }
  - { offset: 0xE15F, size: 0x8, addend: 0x0, symName: __ZNKSt3__117__compressed_pairIPNS_4pairIiiEENS_9allocatorIS2_EEE6secondB8ne180100Ev, symObjAddr: 0x1220, symBinAddr: 0x1000029A0, symSize: 0x20 }
  - { offset: 0xE183, size: 0x8, addend: 0x0, symName: __ZNKSt3__122__compressed_pair_elemINS_9allocatorINS_4pairIiiEEEELi1ELb1EE5__getB8ne180100Ev, symObjAddr: 0x1240, symBinAddr: 0x1000029C0, symSize: 0x10 }
  - { offset: 0xE1A8, size: 0x8, addend: 0x0, symName: __ZNSt3__123__libcpp_numeric_limitsIlLb1EE3maxB8ne180100Ev, symObjAddr: 0x1250, symBinAddr: 0x1000029D0, symSize: 0x10 }
  - { offset: 0xE1BB, size: 0x8, addend: 0x0, symName: __ZNSt12length_errorC1B8ne180100EPKc, symObjAddr: 0x12D0, symBinAddr: 0x100002A50, symSize: 0x30 }
  - { offset: 0xE1F1, size: 0x8, addend: 0x0, symName: __ZNSt12length_errorC2B8ne180100EPKc, symObjAddr: 0x1300, symBinAddr: 0x100002A80, symSize: 0x40 }
  - { offset: 0xE228, size: 0x8, addend: 0x0, symName: __ZNSt3__114__split_bufferINS_4pairIiiEERNS_9allocatorIS2_EEEC2EmmS5_, symObjAddr: 0x1340, symBinAddr: 0x100002AC0, symSize: 0xD0 }
  - { offset: 0xE299, size: 0x8, addend: 0x0, symName: __ZNSt3__117__compressed_pairIPNS_4pairIiiEERNS_9allocatorIS2_EEEC1B8ne180100IDnS6_EEOT_OT0_, symObjAddr: 0x1410, symBinAddr: 0x100002B90, symSize: 0x30 }
  - { offset: 0xE2EF, size: 0x8, addend: 0x0, symName: __ZNSt3__114__split_bufferINS_4pairIiiEERNS_9allocatorIS2_EEE7__allocB8ne180100Ev, symObjAddr: 0x1480, symBinAddr: 0x100002C00, symSize: 0x20 }
  - { offset: 0xE313, size: 0x8, addend: 0x0, symName: __ZNSt3__114__split_bufferINS_4pairIiiEERNS_9allocatorIS2_EEE9__end_capB8ne180100Ev, symObjAddr: 0x14A0, symBinAddr: 0x100002C20, symSize: 0x20 }
  - { offset: 0xE337, size: 0x8, addend: 0x0, symName: __ZNSt3__117__compressed_pairIPNS_4pairIiiEERNS_9allocatorIS2_EEEC2B8ne180100IDnS6_EEOT_OT0_, symObjAddr: 0x14C0, symBinAddr: 0x100002C40, symSize: 0x40 }
  - { offset: 0xE38D, size: 0x8, addend: 0x0, symName: __ZNSt3__122__compressed_pair_elemIRNS_9allocatorINS_4pairIiiEEEELi1ELb0EEC2B8ne180100IS5_vEEOT_, symObjAddr: 0x1500, symBinAddr: 0x100002C80, symSize: 0x20 }
  - { offset: 0xE3CD, size: 0x8, addend: 0x0, symName: __ZNSt3__19allocatorINS_4pairIiiEEE17allocate_at_leastB8ne180100Em, symObjAddr: 0x1560, symBinAddr: 0x100002CE0, symSize: 0x40 }
  - { offset: 0xE3FF, size: 0x8, addend: 0x0, symName: __ZNSt3__19allocatorINS_4pairIiiEEE8allocateB8ne180100Em, symObjAddr: 0x15A0, symBinAddr: 0x100002D20, symSize: 0x50 }
  - { offset: 0xE431, size: 0x8, addend: 0x0, symName: __ZNSt3__117__compressed_pairIPNS_4pairIiiEERNS_9allocatorIS2_EEE6secondB8ne180100Ev, symObjAddr: 0x16E0, symBinAddr: 0x100002E60, symSize: 0x20 }
  - { offset: 0xE455, size: 0x8, addend: 0x0, symName: __ZNSt3__122__compressed_pair_elemIRNS_9allocatorINS_4pairIiiEEEELi1ELb0EE5__getB8ne180100Ev, symObjAddr: 0x1700, symBinAddr: 0x100002E80, symSize: 0x20 }
  - { offset: 0xE479, size: 0x8, addend: 0x0, symName: __ZNSt3__117__compressed_pairIPNS_4pairIiiEERNS_9allocatorIS2_EEE5firstB8ne180100Ev, symObjAddr: 0x1720, symBinAddr: 0x100002EA0, symSize: 0x20 }
  - { offset: 0xE49D, size: 0x8, addend: 0x0, symName: __ZNSt3__122__compressed_pair_elemIPNS_4pairIiiEELi0ELb0EE5__getB8ne180100Ev, symObjAddr: 0x1740, symBinAddr: 0x100002EC0, symSize: 0x10 }
  - { offset: 0xE4C1, size: 0x8, addend: 0x0, symName: __ZNSt3__116reverse_iteratorIPNS_4pairIiiEEEC1B8ne180100ES3_, symObjAddr: 0x18D0, symBinAddr: 0x100003050, symSize: 0x30 }
  - { offset: 0xE4F7, size: 0x8, addend: 0x0, symName: __ZNKSt3__116reverse_iteratorIPNS_4pairIiiEEE4baseB8ne180100Ev, symObjAddr: 0x1900, symBinAddr: 0x100003080, symSize: 0x20 }
  - { offset: 0xE51B, size: 0x8, addend: 0x0, symName: __ZNSt3__16vectorINS_4pairIiiEENS_9allocatorIS2_EEE9__end_capB8ne180100Ev, symObjAddr: 0x1960, symBinAddr: 0x1000030E0, symSize: 0x20 }
  - { offset: 0xE53F, size: 0x8, addend: 0x0, symName: __ZNKSt3__16vectorINS_4pairIiiEENS_9allocatorIS2_EEE14__annotate_newB8ne180100Em, symObjAddr: 0x1980, symBinAddr: 0x100003100, symSize: 0x10 }
  - { offset: 0xE572, size: 0x8, addend: 0x0, symName: __ZNSt3__129_AllocatorDestroyRangeReverseINS_9allocatorINS_4pairIiiEEEENS_16reverse_iteratorIPS3_EEEC1B8ne180100ERS4_RS7_SA_, symObjAddr: 0x19F0, symBinAddr: 0x100003170, symSize: 0x40 }
  - { offset: 0xE5C7, size: 0x8, addend: 0x0, symName: __ZNSt3__116allocator_traitsINS_9allocatorINS_4pairIiiEEEEE9constructB8ne180100IS3_JS3_EvvEEvRS4_PT_DpOT0_, symObjAddr: 0x1A70, symBinAddr: 0x1000031F0, symSize: 0x30 }
  - { offset: 0xE61A, size: 0x8, addend: 0x0, symName: __ZNKSt3__116reverse_iteratorIPNS_4pairIiiEEEdeB8ne180100Ev, symObjAddr: 0x1AC0, symBinAddr: 0x100003240, symSize: 0x30 }
  - { offset: 0xE64C, size: 0x8, addend: 0x0, symName: __ZNSt3__116reverse_iteratorIPNS_4pairIiiEEEppB8ne180100Ev, symObjAddr: 0x1AF0, symBinAddr: 0x100003270, symSize: 0x20 }
  - { offset: 0xE670, size: 0x8, addend: 0x0, symName: __ZNSt3__128__exception_guard_exceptionsINS_29_AllocatorDestroyRangeReverseINS_9allocatorINS_4pairIiiEEEENS_16reverse_iteratorIPS4_EEEEE10__completeB8ne180100Ev, symObjAddr: 0x1B10, symBinAddr: 0x100003290, symSize: 0x20 }
  - { offset: 0xE694, size: 0x8, addend: 0x0, symName: __ZNSt3__128__exception_guard_exceptionsINS_29_AllocatorDestroyRangeReverseINS_9allocatorINS_4pairIiiEEEENS_16reverse_iteratorIPS4_EEEEED1B8ne180100Ev, symObjAddr: 0x1B30, symBinAddr: 0x1000032B0, symSize: 0x20 }
  - { offset: 0xE6BC, size: 0x8, addend: 0x0, symName: __ZNSt3__128__exception_guard_exceptionsINS_29_AllocatorDestroyRangeReverseINS_9allocatorINS_4pairIiiEEEENS_16reverse_iteratorIPS4_EEEEEC1B8ne180100ES9_, symObjAddr: 0x1B50, symBinAddr: 0x1000032D0, symSize: 0x40 }
  - { offset: 0xE6F2, size: 0x8, addend: 0x0, symName: __ZNSt3__128__exception_guard_exceptionsINS_29_AllocatorDestroyRangeReverseINS_9allocatorINS_4pairIiiEEEENS_16reverse_iteratorIPS4_EEEEEC2B8ne180100ES9_, symObjAddr: 0x1B90, symBinAddr: 0x100003310, symSize: 0x30 }
  - { offset: 0xE728, size: 0x8, addend: 0x0, symName: __ZNSt3__129_AllocatorDestroyRangeReverseINS_9allocatorINS_4pairIiiEEEENS_16reverse_iteratorIPS3_EEEC2B8ne180100ERS4_RS7_SA_, symObjAddr: 0x1BC0, symBinAddr: 0x100003340, symSize: 0x40 }
  - { offset: 0xE782, size: 0x8, addend: 0x0, symName: __ZNSt3__119__to_address_helperINS_16reverse_iteratorIPNS_4pairIiiEEEEvE6__callB8ne180100ERKS5_, symObjAddr: 0x1C50, symBinAddr: 0x1000033D0, symSize: 0x40 }
  - { offset: 0xE7A4, size: 0x8, addend: 0x0, symName: __ZNKSt3__116reverse_iteratorIPNS_4pairIiiEEEptB8ne180100Ev, symObjAddr: 0x1C90, symBinAddr: 0x100003410, symSize: 0x30 }
  - { offset: 0xE7C8, size: 0x8, addend: 0x0, symName: __ZNSt3__128__exception_guard_exceptionsINS_29_AllocatorDestroyRangeReverseINS_9allocatorINS_4pairIiiEEEENS_16reverse_iteratorIPS4_EEEEED2B8ne180100Ev, symObjAddr: 0x1D50, symBinAddr: 0x1000034D0, symSize: 0x40 }
  - { offset: 0xE7F0, size: 0x8, addend: 0x0, symName: __ZNKSt3__129_AllocatorDestroyRangeReverseINS_9allocatorINS_4pairIiiEEEENS_16reverse_iteratorIPS3_EEEclB8ne180100Ev, symObjAddr: 0x1D90, symBinAddr: 0x100003510, symSize: 0xF0 }
  - { offset: 0xE815, size: 0x8, addend: 0x0, symName: __ZNSt3__116reverse_iteratorINS0_IPNS_4pairIiiEEEEEC1B8ne180100ES4_, symObjAddr: 0x1EF0, symBinAddr: 0x100003670, symSize: 0x30 }
  - { offset: 0xE84B, size: 0x8, addend: 0x0, symName: __ZNSt3__116reverse_iteratorINS0_IPNS_4pairIiiEEEEEppB8ne180100Ev, symObjAddr: 0x1F90, symBinAddr: 0x100003710, symSize: 0x30 }
  - { offset: 0xE86F, size: 0x8, addend: 0x0, symName: __ZNKSt3__116reverse_iteratorINS0_IPNS_4pairIiiEEEEE4baseB8ne180100Ev, symObjAddr: 0x1FC0, symBinAddr: 0x100003740, symSize: 0x20 }
  - { offset: 0xE898, size: 0x8, addend: 0x0, symName: __ZNSt3__119__to_address_helperINS_16reverse_iteratorINS1_IPNS_4pairIiiEEEEEEvE6__callB8ne180100ERKS6_, symObjAddr: 0x1FE0, symBinAddr: 0x100003760, symSize: 0x40 }
  - { offset: 0xE8BA, size: 0x8, addend: 0x0, symName: __ZNKSt3__116reverse_iteratorINS0_IPNS_4pairIiiEEEEEptB8ne180100Ev, symObjAddr: 0x2020, symBinAddr: 0x1000037A0, symSize: 0x50 }
  - { offset: 0xE8DE, size: 0x8, addend: 0x0, symName: __ZNSt3__116reverse_iteratorIPNS_4pairIiiEEEpLB8ne180100El, symObjAddr: 0x2110, symBinAddr: 0x100003890, symSize: 0x30 }
  - { offset: 0xE910, size: 0x8, addend: 0x0, symName: __ZNSt3__116reverse_iteratorIPNS_4pairIiiEEEmmB8ne180100Ev, symObjAddr: 0x2140, symBinAddr: 0x1000038C0, symSize: 0x20 }
  - { offset: 0xE934, size: 0x8, addend: 0x0, symName: __ZNSt3__116reverse_iteratorINS0_IPNS_4pairIiiEEEEEC2B8ne180100ES4_, symObjAddr: 0x2160, symBinAddr: 0x1000038E0, symSize: 0x40 }
  - { offset: 0xE96A, size: 0x8, addend: 0x0, symName: __ZNSt3__116reverse_iteratorIPNS_4pairIiiEEEC2B8ne180100ES3_, symObjAddr: 0x21A0, symBinAddr: 0x100003920, symSize: 0x30 }
  - { offset: 0xE9A0, size: 0x8, addend: 0x0, symName: __ZNSt3__117__compressed_pairIPNS_4pairIiiEENS_9allocatorIS2_EEE5firstB8ne180100Ev, symObjAddr: 0x21D0, symBinAddr: 0x100003950, symSize: 0x20 }
  - { offset: 0xE9C5, size: 0x8, addend: 0x0, symName: __ZNSt3__114__split_bufferINS_4pairIiiEERNS_9allocatorIS2_EEED2Ev, symObjAddr: 0x21F0, symBinAddr: 0x100003970, symSize: 0x70 }
  - { offset: 0xE9EF, size: 0x8, addend: 0x0, symName: __ZNSt3__114__split_bufferINS_4pairIiiEERNS_9allocatorIS2_EEE5clearB8ne180100Ev, symObjAddr: 0x2260, symBinAddr: 0x1000039E0, symSize: 0x20 }
  - { offset: 0xEA13, size: 0x8, addend: 0x0, symName: __ZNKSt3__114__split_bufferINS_4pairIiiEERNS_9allocatorIS2_EEE8capacityB8ne180100Ev, symObjAddr: 0x2280, symBinAddr: 0x100003A00, symSize: 0x30 }
  - { offset: 0xEA37, size: 0x8, addend: 0x0, symName: __ZNSt3__114__split_bufferINS_4pairIiiEERNS_9allocatorIS2_EEE17__destruct_at_endB8ne180100EPS2_, symObjAddr: 0x22B0, symBinAddr: 0x100003A30, symSize: 0x30 }
  - { offset: 0xEA6A, size: 0x8, addend: 0x0, symName: __ZNSt3__114__split_bufferINS_4pairIiiEERNS_9allocatorIS2_EEE17__destruct_at_endB8ne180100EPS2_NS_17integral_constantIbLb0EEE, symObjAddr: 0x22E0, symBinAddr: 0x100003A60, symSize: 0x80 }
  - { offset: 0xEAA9, size: 0x8, addend: 0x0, symName: __ZNKSt3__114__split_bufferINS_4pairIiiEERNS_9allocatorIS2_EEE9__end_capB8ne180100Ev, symObjAddr: 0x2360, symBinAddr: 0x100003AE0, symSize: 0x20 }
  - { offset: 0xEACD, size: 0x8, addend: 0x0, symName: __ZNKSt3__117__compressed_pairIPNS_4pairIiiEERNS_9allocatorIS2_EEE5firstB8ne180100Ev, symObjAddr: 0x2380, symBinAddr: 0x100003B00, symSize: 0x20 }
  - { offset: 0xEAF1, size: 0x8, addend: 0x0, symName: __ZNSt3__16vectorINS_4pairIiiEENS_9allocatorIS2_EEE22__construct_one_at_endB8ne180100IJRKS2_EEEvDpOT_, symObjAddr: 0x23A0, symBinAddr: 0x100003B20, symSize: 0x90 }
  - { offset: 0xEB3F, size: 0x8, addend: 0x0, symName: __ZNSt3__16vectorINS_4pairIiiEENS_9allocatorIS2_EEE21__push_back_slow_pathIRKS2_EEPS2_OT_, symObjAddr: 0x2430, symBinAddr: 0x100003BB0, symSize: 0xE0 }
  - { offset: 0xEBB4, size: 0x8, addend: 0x0, symName: __ZNSt3__16vectorINS_4pairIiiEENS_9allocatorIS2_EEE21_ConstructTransactionC1B8ne180100ERS5_m, symObjAddr: 0x2510, symBinAddr: 0x100003C90, symSize: 0x30 }
  - { offset: 0xEBFA, size: 0x8, addend: 0x0, symName: __ZNSt3__116allocator_traitsINS_9allocatorINS_4pairIiiEEEEE9constructB8ne180100IS3_JRKS3_EvvEEvRS4_PT_DpOT0_, symObjAddr: 0x2540, symBinAddr: 0x100003CC0, symSize: 0x30 }
  - { offset: 0xEC4D, size: 0x8, addend: 0x0, symName: __ZNSt3__16vectorINS_4pairIiiEENS_9allocatorIS2_EEE21_ConstructTransactionD1B8ne180100Ev, symObjAddr: 0x2570, symBinAddr: 0x100003CF0, symSize: 0x20 }
  - { offset: 0xEC75, size: 0x8, addend: 0x0, symName: __ZNSt3__16vectorINS_4pairIiiEENS_9allocatorIS2_EEE21_ConstructTransactionC2B8ne180100ERS5_m, symObjAddr: 0x2590, symBinAddr: 0x100003D10, symSize: 0x40 }
  - { offset: 0xECBB, size: 0x8, addend: 0x0, symName: __ZNSt3__16vectorINS_4pairIiiEENS_9allocatorIS2_EEE21_ConstructTransactionD2B8ne180100Ev, symObjAddr: 0x2620, symBinAddr: 0x100003DA0, symSize: 0x20 }
  - { offset: 0xECE4, size: 0x8, addend: 0x0, symName: __ZNKSt3__16vectorINS_4pairIiiEENS_9allocatorIS2_EEE11__recommendB8ne180100Em, symObjAddr: 0x2640, symBinAddr: 0x100003DC0, symSize: 0x90 }
  - { offset: 0xED37, size: 0x8, addend: 0x0, symName: __ZNKSt3__16vectorINS_4pairIiiEENS_9allocatorIS2_EEE20__throw_out_of_rangeB8ne180100Ev, symObjAddr: 0x2750, symBinAddr: 0x100003ED0, symSize: 0x20 }
  - { offset: 0xED5B, size: 0x8, addend: 0x0, symName: __ZNSt12out_of_rangeC1B8ne180100EPKc, symObjAddr: 0x27E0, symBinAddr: 0x100003F60, symSize: 0x30 }
  - { offset: 0xED91, size: 0x8, addend: 0x0, symName: __ZNSt12out_of_rangeC2B8ne180100EPKc, symObjAddr: 0x2810, symBinAddr: 0x100003F90, symSize: 0x40 }
  - { offset: 0xEDC7, size: 0x8, addend: 0x0, symName: __ZNSt3__111char_traitsIcE6lengthB8ne180100EPKc, symObjAddr: 0x2A70, symBinAddr: 0x1000041C0, symSize: 0x30 }
  - { offset: 0xEE07, size: 0x8, addend: 0x0, symName: __ZNKSt3__113basic_ostreamIcNS_11char_traitsIcEEE6sentrycvbB8ne180100Ev, symObjAddr: 0x2AA0, symBinAddr: 0x1000041F0, symSize: 0x20 }
  - { offset: 0xEE2B, size: 0x8, addend: 0x0, symName: __ZNSt3__119ostreambuf_iteratorIcNS_11char_traitsIcEEEC1B8ne180100ERNS_13basic_ostreamIcS2_EE, symObjAddr: 0x2CE0, symBinAddr: 0x100004430, symSize: 0x30 }
  - { offset: 0xEE62, size: 0x8, addend: 0x0, symName: __ZNKSt3__18ios_base5flagsB8ne180100Ev, symObjAddr: 0x2D10, symBinAddr: 0x100004460, symSize: 0x20 }
  - { offset: 0xEE89, size: 0x8, addend: 0x0, symName: __ZNKSt3__19basic_iosIcNS_11char_traitsIcEEE4fillB8ne180100Ev, symObjAddr: 0x2D30, symBinAddr: 0x100004480, symSize: 0x70 }
  - { offset: 0xEEAF, size: 0x8, addend: 0x0, symName: __ZNKSt3__119ostreambuf_iteratorIcNS_11char_traitsIcEEE6failedB8ne180100Ev, symObjAddr: 0x2DA0, symBinAddr: 0x1000044F0, symSize: 0x20 }
  - { offset: 0xEED3, size: 0x8, addend: 0x0, symName: __ZNSt3__19basic_iosIcNS_11char_traitsIcEEE8setstateB8ne180100Ej, symObjAddr: 0x2DC0, symBinAddr: 0x100004510, symSize: 0x30 }
  - { offset: 0xEF07, size: 0x8, addend: 0x0, symName: __ZNKSt3__18ios_base5widthB8ne180100Ev, symObjAddr: 0x2DF0, symBinAddr: 0x100004540, symSize: 0x20 }
  - { offset: 0xEF2D, size: 0x8, addend: 0x0, symName: __ZNSt3__115basic_streambufIcNS_11char_traitsIcEEE5sputnB8ne180100EPKcl, symObjAddr: 0x2E10, symBinAddr: 0x100004560, symSize: 0x30 }
  - { offset: 0xEF6D, size: 0x8, addend: 0x0, symName: __ZNSt3__112basic_stringIcNS_11char_traitsIcEENS_9allocatorIcEEEC1B8ne180100Emc, symObjAddr: 0x2E40, symBinAddr: 0x100004590, symSize: 0x30 }
  - { offset: 0xEFB3, size: 0x8, addend: 0x0, symName: __ZNSt3__112basic_stringIcNS_11char_traitsIcEENS_9allocatorIcEEE4dataB8ne180100Ev, symObjAddr: 0x2E70, symBinAddr: 0x1000045C0, symSize: 0x30 }
  - { offset: 0xEFD8, size: 0x8, addend: 0x0, symName: __ZNSt3__18ios_base5widthB8ne180100El, symObjAddr: 0x2EA0, symBinAddr: 0x1000045F0, symSize: 0x30 }
  - { offset: 0xF01C, size: 0x8, addend: 0x0, symName: __ZNSt3__112basic_stringIcNS_11char_traitsIcEENS_9allocatorIcEEEC2B8ne180100Emc, symObjAddr: 0x2ED0, symBinAddr: 0x100004620, symSize: 0x50 }
  - { offset: 0xF062, size: 0x8, addend: 0x0, symName: __ZNSt3__117__compressed_pairINS_12basic_stringIcNS_11char_traitsIcEENS_9allocatorIcEEE5__repES5_EC1B8ne180100INS_18__default_init_tagESA_EEOT_OT0_, symObjAddr: 0x2F20, symBinAddr: 0x100004670, symSize: 0x30 }
  - { offset: 0xF0B8, size: 0x8, addend: 0x0, symName: __ZNSt3__117__compressed_pairINS_12basic_stringIcNS_11char_traitsIcEENS_9allocatorIcEEE5__repES5_EC2B8ne180100INS_18__default_init_tagESA_EEOT_OT0_, symObjAddr: 0x2F50, symBinAddr: 0x1000046A0, symSize: 0x30 }
  - { offset: 0xF10E, size: 0x8, addend: 0x0, symName: __ZNSt3__122__compressed_pair_elemINS_12basic_stringIcNS_11char_traitsIcEENS_9allocatorIcEEE5__repELi0ELb0EEC2B8ne180100ENS_18__default_init_tagE, symObjAddr: 0x2F80, symBinAddr: 0x1000046D0, symSize: 0x10 }
  - { offset: 0xF141, size: 0x8, addend: 0x0, symName: __ZNSt3__122__compressed_pair_elemINS_9allocatorIcEELi1ELb1EEC2B8ne180100ENS_18__default_init_tagE, symObjAddr: 0x2F90, symBinAddr: 0x1000046E0, symSize: 0x20 }
  - { offset: 0xF174, size: 0x8, addend: 0x0, symName: __ZNSt3__19allocatorIcEC2B8ne180100Ev, symObjAddr: 0x2FB0, symBinAddr: 0x100004700, symSize: 0x20 }
  - { offset: 0xF19C, size: 0x8, addend: 0x0, symName: __ZNSt3__116__non_trivial_ifILb1ENS_9allocatorIcEEEC2B8ne180100Ev, symObjAddr: 0x2FD0, symBinAddr: 0x100004720, symSize: 0x10 }
  - { offset: 0xF1C4, size: 0x8, addend: 0x0, symName: __ZNSt3__112basic_stringIcNS_11char_traitsIcEENS_9allocatorIcEEE13__get_pointerB8ne180100Ev, symObjAddr: 0x2FF0, symBinAddr: 0x100004740, symSize: 0x50 }
  - { offset: 0xF1E8, size: 0x8, addend: 0x0, symName: __ZNKSt3__112basic_stringIcNS_11char_traitsIcEENS_9allocatorIcEEE9__is_longB8ne180100Ev, symObjAddr: 0x3040, symBinAddr: 0x100004790, symSize: 0x30 }
  - { offset: 0xF20C, size: 0x8, addend: 0x0, symName: __ZNSt3__112basic_stringIcNS_11char_traitsIcEENS_9allocatorIcEEE18__get_long_pointerB8ne180100Ev, symObjAddr: 0x3070, symBinAddr: 0x1000047C0, symSize: 0x20 }
  - { offset: 0xF230, size: 0x8, addend: 0x0, symName: __ZNSt3__112basic_stringIcNS_11char_traitsIcEENS_9allocatorIcEEE19__get_short_pointerB8ne180100Ev, symObjAddr: 0x3090, symBinAddr: 0x1000047E0, symSize: 0x30 }
  - { offset: 0xF254, size: 0x8, addend: 0x0, symName: __ZNKSt3__117__compressed_pairINS_12basic_stringIcNS_11char_traitsIcEENS_9allocatorIcEEE5__repES5_E5firstB8ne180100Ev, symObjAddr: 0x30C0, symBinAddr: 0x100004810, symSize: 0x20 }
  - { offset: 0xF278, size: 0x8, addend: 0x0, symName: __ZNKSt3__122__compressed_pair_elemINS_12basic_stringIcNS_11char_traitsIcEENS_9allocatorIcEEE5__repELi0ELb0EE5__getB8ne180100Ev, symObjAddr: 0x30E0, symBinAddr: 0x100004830, symSize: 0x10 }
  - { offset: 0xF29C, size: 0x8, addend: 0x0, symName: __ZNSt3__117__compressed_pairINS_12basic_stringIcNS_11char_traitsIcEENS_9allocatorIcEEE5__repES5_E5firstB8ne180100Ev, symObjAddr: 0x30F0, symBinAddr: 0x100004840, symSize: 0x20 }
  - { offset: 0xF2C0, size: 0x8, addend: 0x0, symName: __ZNSt3__122__compressed_pair_elemINS_12basic_stringIcNS_11char_traitsIcEENS_9allocatorIcEEE5__repELi0ELb0EE5__getB8ne180100Ev, symObjAddr: 0x3110, symBinAddr: 0x100004860, symSize: 0x10 }
  - { offset: 0xF2E4, size: 0x8, addend: 0x0, symName: __ZNSt3__114pointer_traitsIPcE10pointer_toB8ne180100ERc, symObjAddr: 0x3120, symBinAddr: 0x100004870, symSize: 0x10 }
  - { offset: 0xF306, size: 0x8, addend: 0x0, symName: __ZNSt3__119ostreambuf_iteratorIcNS_11char_traitsIcEEEC2B8ne180100ERNS_13basic_ostreamIcS2_EE, symObjAddr: 0x3130, symBinAddr: 0x100004880, symSize: 0x50 }
  - { offset: 0xF33D, size: 0x8, addend: 0x0, symName: __ZNKSt3__19basic_iosIcNS_11char_traitsIcEEE5rdbufB8ne180100Ev, symObjAddr: 0x3180, symBinAddr: 0x1000048D0, symSize: 0x20 }
  - { offset: 0xF363, size: 0x8, addend: 0x0, symName: __ZNKSt3__18ios_base5rdbufB8ne180100Ev, symObjAddr: 0x31A0, symBinAddr: 0x1000048F0, symSize: 0x20 }
  - { offset: 0xF387, size: 0x8, addend: 0x0, symName: __ZNSt3__111char_traitsIcE11eq_int_typeB8ne180100Eii, symObjAddr: 0x31C0, symBinAddr: 0x100004910, symSize: 0x20 }
  - { offset: 0xF3BA, size: 0x8, addend: 0x0, symName: __ZNSt3__111char_traitsIcE3eofB8ne180100Ev, symObjAddr: 0x31E0, symBinAddr: 0x100004930, symSize: 0x10 }
  - { offset: 0xF3CE, size: 0x8, addend: 0x0, symName: __ZNKSt3__19basic_iosIcNS_11char_traitsIcEEE5widenB8ne180100Ec, symObjAddr: 0x31F0, symBinAddr: 0x100004940, symSize: 0x80 }
  - { offset: 0xF43A, size: 0x8, addend: 0x0, symName: __ZNKSt3__15ctypeIcE5widenB8ne180100Ec, symObjAddr: 0x32A0, symBinAddr: 0x1000049F0, symSize: 0x30 }
  - { offset: 0xF46E, size: 0x8, addend: 0x0, symName: __ZNSt3__18ios_base8setstateB8ne180100Ej, symObjAddr: 0x32D0, symBinAddr: 0x100004A20, symSize: 0x30 }
  - { offset: 0x11ED6, size: 0x8, addend: 0x0, symName: '__ZNSt3__17find_ifB8ne180100INS_11__wrap_iterIPKNS_4pairIiiEEEEZN3Dot11set_dot_posES3_RKNS_6vectorIS3_NS_9allocatorIS3_EEEEE3$_0EET_SF_SF_T0_', symObjAddr: 0x320, symBinAddr: 0x100004CF0, symSize: 0x80 }
  - { offset: 0x11F30, size: 0x8, addend: 0x0, symName: __ZNSt3__1neB8ne180100IPKNS_4pairIiiEEEEbRKNS_11__wrap_iterIT_EES9_, symObjAddr: 0x400, symBinAddr: 0x100004DD0, symSize: 0x30 }
  - { offset: 0x11F73, size: 0x8, addend: 0x0, symName: __ZNSt3__1eqB8ne180100IPKNS_4pairIiiEEEEbRKNS_11__wrap_iterIT_EES9_, symObjAddr: 0x5E0, symBinAddr: 0x100004F20, symSize: 0x40 }
  - { offset: 0x12C2C, size: 0x8, addend: 0x0, symName: __ZN3DotC2ERKNSt3__14pairIiiEES4_, symObjAddr: 0x0, symBinAddr: 0x100004A70, symSize: 0x50 }
  - { offset: 0x12C73, size: 0x8, addend: 0x0, symName: __ZN3Dot13init_dot_pos_ERKNSt3__14pairIiiEES4_, symObjAddr: 0x70, symBinAddr: 0x100004AC0, symSize: 0x90 }
  - { offset: 0x12CC3, size: 0x8, addend: 0x0, symName: __ZN3DotC1ERKNSt3__14pairIiiEES4_, symObjAddr: 0x100, symBinAddr: 0x100004B50, symSize: 0x30 }
  - { offset: 0x12D0A, size: 0x8, addend: 0x0, symName: __ZN3Dot11get_dot_posEv, symObjAddr: 0x180, symBinAddr: 0x100004B80, symSize: 0x30 }
  - { offset: 0x12D30, size: 0x8, addend: 0x0, symName: __ZNSt3__14pairIiiEaSB8ne180100EOS1_, symObjAddr: 0x1B0, symBinAddr: 0x100004BB0, symSize: 0x30 }
  - { offset: 0x12D64, size: 0x8, addend: 0x0, symName: __ZN3Dot11set_dot_posENSt3__14pairIiiEERKNS0_6vectorIS2_NS0_9allocatorIS2_EEEE, symObjAddr: 0x210, symBinAddr: 0x100004BE0, symSize: 0x110 }
  - { offset: 0x12DEE, size: 0x8, addend: 0x0, symName: __ZNKSt3__16vectorINS_4pairIiiEENS_9allocatorIS2_EEE5beginB8ne180100Ev, symObjAddr: 0x3A0, symBinAddr: 0x100004D70, symSize: 0x30 }
  - { offset: 0x12E15, size: 0x8, addend: 0x0, symName: __ZNKSt3__16vectorINS_4pairIiiEENS_9allocatorIS2_EEE3endB8ne180100Ev, symObjAddr: 0x3D0, symBinAddr: 0x100004DA0, symSize: 0x30 }
  - { offset: 0x12E3C, size: 0x8, addend: 0x0, symName: __ZN3Dot9print_dotEv, symObjAddr: 0x4A0, symBinAddr: 0x100004E00, symSize: 0x30 }
  - { offset: 0x12E6C, size: 0x8, addend: 0x0, symName: '__ZZN3Dot11set_dot_posENSt3__14pairIiiEERKNS0_6vectorIS2_NS0_9allocatorIS2_EEEEENK3$_0clERKS2_', symObjAddr: 0x4F0, symBinAddr: 0x100004E30, symSize: 0x30 }
  - { offset: 0x12EA2, size: 0x8, addend: 0x0, symName: __ZNKSt3__111__wrap_iterIPKNS_4pairIiiEEEdeB8ne180100Ev, symObjAddr: 0x520, symBinAddr: 0x100004E60, symSize: 0x20 }
  - { offset: 0x12EC6, size: 0x8, addend: 0x0, symName: __ZNSt3__111__wrap_iterIPKNS_4pairIiiEEEppB8ne180100Ev, symObjAddr: 0x540, symBinAddr: 0x100004E80, symSize: 0x20 }
  - { offset: 0x12EEA, size: 0x8, addend: 0x0, symName: __ZNKSt3__16vectorINS_4pairIiiEENS_9allocatorIS2_EEE11__make_iterB8ne180100EPKS2_, symObjAddr: 0x560, symBinAddr: 0x100004EA0, symSize: 0x30 }
  - { offset: 0x12F1D, size: 0x8, addend: 0x0, symName: __ZNSt3__111__wrap_iterIPKNS_4pairIiiEEEC1B8ne180100ES4_, symObjAddr: 0x590, symBinAddr: 0x100004ED0, symSize: 0x30 }
  - { offset: 0x12F53, size: 0x8, addend: 0x0, symName: __ZNSt3__111__wrap_iterIPKNS_4pairIiiEEEC2B8ne180100ES4_, symObjAddr: 0x5C0, symBinAddr: 0x100004F00, symSize: 0x20 }
  - { offset: 0x12F89, size: 0x8, addend: 0x0, symName: __ZNKSt3__111__wrap_iterIPKNS_4pairIiiEEE4baseB8ne180100Ev, symObjAddr: 0x620, symBinAddr: 0x100004F60, symSize: 0x20 }
  - { offset: 0x17BDE, size: 0x8, addend: 0x0, symName: __ZNSt3__113__countl_zeroB8ne180100IjEEiT_, symObjAddr: 0x770, symBinAddr: 0x1000055D0, symSize: 0x40 }
  - { offset: 0x17C13, size: 0x8, addend: 0x0, symName: __ZNSt3__112__libcpp_clzB8ne180100Ej, symObjAddr: 0xB60, symBinAddr: 0x1000059C0, symSize: 0x20 }
  - { offset: 0x18812, size: 0x8, addend: 0x0, symName: __ZNSt3__124uniform_int_distributionIjEclINS_23mersenne_twister_engineIjLm32ELm624ELm397ELm31ELj2567483615ELm11ELj4294967295ELm7ELj2636928640ELm15ELj4022730752ELm18ELj1812433253EEEEEjRT_RKNS1_10param_typeE, symObjAddr: 0x5A0, symBinAddr: 0x100005400, symSize: 0x150 }
  - { offset: 0x18924, size: 0x8, addend: 0x0, symName: __ZN23RandomPositionGenerator12generate_posERKNSt3__14pairIiiEE, symObjAddr: 0x0, symBinAddr: 0x100004F80, symSize: 0x130 }
  - { offset: 0x18AA8, size: 0x8, addend: 0x0, symName: __ZNSt3__113random_deviceC1B8ne180100Ev, symObjAddr: 0x130, symBinAddr: 0x1000050B0, symSize: 0x70 }
  - { offset: 0x18AD0, size: 0x8, addend: 0x0, symName: __ZNSt3__123mersenne_twister_engineIjLm32ELm624ELm397ELm31ELj2567483615ELm11ELj4294967295ELm7ELj2636928640ELm15ELj4022730752ELm18ELj1812433253EEC1B8ne180100Ej, symObjAddr: 0x1A0, symBinAddr: 0x100005120, symSize: 0x30 }
  - { offset: 0x18B06, size: 0x8, addend: 0x0, symName: __ZNSt3__124uniform_int_distributionIjEC1B8ne180100Ejj, symObjAddr: 0x1D0, symBinAddr: 0x100005150, symSize: 0x30 }
  - { offset: 0x18B4A, size: 0x8, addend: 0x0, symName: __ZNSt3__124uniform_int_distributionIjEclB8ne180100INS_23mersenne_twister_engineIjLm32ELm624ELm397ELm31ELj2567483615ELm11ELj4294967295ELm7ELj2636928640ELm15ELj4022730752ELm18ELj1812433253EEEEEjRT_, symObjAddr: 0x200, symBinAddr: 0x100005180, symSize: 0x30 }
  - { offset: 0x18B8A, size: 0x8, addend: 0x0, symName: __ZNSt3__14pairIiiEC1B8ne180100IRiS3_Li0EEEOT_OT0_, symObjAddr: 0x230, symBinAddr: 0x1000051B0, symSize: 0x30 }
  - { offset: 0x18BEB, size: 0x8, addend: 0x0, symName: __ZNSt3__112basic_stringIcNS_11char_traitsIcEENS_9allocatorIcEEEC1B8ne180100ILi0EEEPKc, symObjAddr: 0x260, symBinAddr: 0x1000051E0, symSize: 0x30 }
  - { offset: 0x18C28, size: 0x8, addend: 0x0, symName: __ZNSt3__112basic_stringIcNS_11char_traitsIcEENS_9allocatorIcEEEC2B8ne180100ILi0EEEPKc, symObjAddr: 0x290, symBinAddr: 0x100005210, symSize: 0x50 }
  - { offset: 0x18C65, size: 0x8, addend: 0x0, symName: __ZNSt3__14pairIiiEC2B8ne180100IRiS3_Li0EEEOT_OT0_, symObjAddr: 0x400, symBinAddr: 0x100005260, symSize: 0x30 }
  - { offset: 0x18CC1, size: 0x8, addend: 0x0, symName: __ZNSt3__123mersenne_twister_engineIjLm32ELm624ELm397ELm31ELj2567483615ELm11ELj4294967295ELm7ELj2636928640ELm15ELj4022730752ELm18ELj1812433253EEC2B8ne180100Ej, symObjAddr: 0x430, symBinAddr: 0x100005290, symSize: 0x30 }
  - { offset: 0x18CF8, size: 0x8, addend: 0x0, symName: __ZNSt3__123mersenne_twister_engineIjLm32ELm624ELm397ELm31ELj2567483615ELm11ELj4294967295ELm7ELj2636928640ELm15ELj4022730752ELm18ELj1812433253EE4seedEj, symObjAddr: 0x460, symBinAddr: 0x1000052C0, symSize: 0xB0 }
  - { offset: 0x18D49, size: 0x8, addend: 0x0, symName: __ZNSt3__123mersenne_twister_engineIjLm32ELm624ELm397ELm31ELj2567483615ELm11ELj4294967295ELm7ELj2636928640ELm15ELj4022730752ELm18ELj1812433253EE8__rshiftB8ne180100ILm30ELi0EEEjj, symObjAddr: 0x510, symBinAddr: 0x100005370, symSize: 0x10 }
  - { offset: 0x18D7C, size: 0x8, addend: 0x0, symName: __ZNSt3__124uniform_int_distributionIjEC2B8ne180100Ejj, symObjAddr: 0x520, symBinAddr: 0x100005380, symSize: 0x30 }
  - { offset: 0x18DC0, size: 0x8, addend: 0x0, symName: __ZNSt3__124uniform_int_distributionIjE10param_typeC1B8ne180100Ejj, symObjAddr: 0x550, symBinAddr: 0x1000053B0, symSize: 0x30 }
  - { offset: 0x18E04, size: 0x8, addend: 0x0, symName: __ZNSt3__124uniform_int_distributionIjE10param_typeC2B8ne180100Ejj, symObjAddr: 0x580, symBinAddr: 0x1000053E0, symSize: 0x20 }
  - { offset: 0x18E48, size: 0x8, addend: 0x0, symName: __ZNKSt3__124uniform_int_distributionIjE10param_type1bB8ne180100Ev, symObjAddr: 0x6F0, symBinAddr: 0x100005550, symSize: 0x20 }
  - { offset: 0x18E6C, size: 0x8, addend: 0x0, symName: __ZNKSt3__124uniform_int_distributionIjE10param_type1aB8ne180100Ev, symObjAddr: 0x710, symBinAddr: 0x100005570, symSize: 0x10 }
  - { offset: 0x18E91, size: 0x8, addend: 0x0, symName: __ZNSt3__125__independent_bits_engineINS_23mersenne_twister_engineIjLm32ELm624ELm397ELm31ELj2567483615ELm11ELj4294967295ELm7ELj2636928640ELm15ELj4022730752ELm18ELj1812433253EEEjEC1ERS2_m, symObjAddr: 0x720, symBinAddr: 0x100005580, symSize: 0x30 }
  - { offset: 0x18ED6, size: 0x8, addend: 0x0, symName: __ZNSt3__125__independent_bits_engineINS_23mersenne_twister_engineIjLm32ELm624ELm397ELm31ELj2567483615ELm11ELj4294967295ELm7ELj2636928640ELm15ELj4022730752ELm18ELj1812433253EEEjEclB8ne180100Ev, symObjAddr: 0x750, symBinAddr: 0x1000055B0, symSize: 0x20 }
  - { offset: 0x18EFB, size: 0x8, addend: 0x0, symName: __ZNSt3__114numeric_limitsIjE3maxB8ne180100Ev, symObjAddr: 0x7B0, symBinAddr: 0x100005610, symSize: 0x10 }
  - { offset: 0x18F0F, size: 0x8, addend: 0x0, symName: __ZNSt3__125__independent_bits_engineINS_23mersenne_twister_engineIjLm32ELm624ELm397ELm31ELj2567483615ELm11ELj4294967295ELm7ELj2636928640ELm15ELj4022730752ELm18ELj1812433253EEEjEC2ERS2_m, symObjAddr: 0x7C0, symBinAddr: 0x100005620, symSize: 0x1D0 }
  - { offset: 0x18F55, size: 0x8, addend: 0x0, symName: __ZNSt3__125__independent_bits_engineINS_23mersenne_twister_engineIjLm32ELm624ELm397ELm31ELj2567483615ELm11ELj4294967295ELm7ELj2636928640ELm15ELj4022730752ELm18ELj1812433253EEEjE6__evalENS_17integral_constantIbLb0EEE, symObjAddr: 0x990, symBinAddr: 0x1000057F0, symSize: 0x30 }
  - { offset: 0x18F86, size: 0x8, addend: 0x0, symName: __ZNSt3__123mersenne_twister_engineIjLm32ELm624ELm397ELm31ELj2567483615ELm11ELj4294967295ELm7ELj2636928640ELm15ELj4022730752ELm18ELj1812433253EEclEv, symObjAddr: 0x9C0, symBinAddr: 0x100005820, symSize: 0x130 }
  - { offset: 0x18FF7, size: 0x8, addend: 0x0, symName: __ZNSt3__123mersenne_twister_engineIjLm32ELm624ELm397ELm31ELj2567483615ELm11ELj4294967295ELm7ELj2636928640ELm15ELj4022730752ELm18ELj1812433253EE8__rshiftB8ne180100ILm1ELi0EEEjj, symObjAddr: 0xAF0, symBinAddr: 0x100005950, symSize: 0x10 }
  - { offset: 0x1902A, size: 0x8, addend: 0x0, symName: __ZNSt3__123mersenne_twister_engineIjLm32ELm624ELm397ELm31ELj2567483615ELm11ELj4294967295ELm7ELj2636928640ELm15ELj4022730752ELm18ELj1812433253EE8__rshiftB8ne180100ILm11ELi0EEEjj, symObjAddr: 0xB00, symBinAddr: 0x100005960, symSize: 0x10 }
  - { offset: 0x1905D, size: 0x8, addend: 0x0, symName: __ZNSt3__123mersenne_twister_engineIjLm32ELm624ELm397ELm31ELj2567483615ELm11ELj4294967295ELm7ELj2636928640ELm15ELj4022730752ELm18ELj1812433253EE8__lshiftB8ne180100ILm7ELi0EEEjj, symObjAddr: 0xB10, symBinAddr: 0x100005970, symSize: 0x20 }
  - { offset: 0x19090, size: 0x8, addend: 0x0, symName: __ZNSt3__123mersenne_twister_engineIjLm32ELm624ELm397ELm31ELj2567483615ELm11ELj4294967295ELm7ELj2636928640ELm15ELj4022730752ELm18ELj1812433253EE8__lshiftB8ne180100ILm15ELi0EEEjj, symObjAddr: 0xB30, symBinAddr: 0x100005990, symSize: 0x20 }
  - { offset: 0x190C3, size: 0x8, addend: 0x0, symName: __ZNSt3__123mersenne_twister_engineIjLm32ELm624ELm397ELm31ELj2567483615ELm11ELj4294967295ELm7ELj2636928640ELm15ELj4022730752ELm18ELj1812433253EE8__rshiftB8ne180100ILm18ELi0EEEjj, symObjAddr: 0xB50, symBinAddr: 0x1000059B0, symSize: 0x10 }
  - { offset: 0x190F7, size: 0x8, addend: 0x0, symName: __ZNSt3__123__libcpp_numeric_limitsIjLb1EE3maxB8ne180100Ev, symObjAddr: 0xB80, symBinAddr: 0x1000059E0, symSize: 0xB }
...
